target datalayout = "e-m:e-p270:32:32-p271:32:32-p272:64:64-i64:64-i128:128-f80:128-n8:16:32:64-S128"
target triple = "x86_64-pc-linux-gnu"

%"struct.(anonymous namespace)::SynthesizeIvarChunk" = type { i64, ptr }

; Function Attrs: mustprogress nounwind uwtable
define internal void @_ZSt22__stable_sort_adaptiveIPN12_GLOBAL__N_119SynthesizeIvarChunkES2_lN9__gnu_cxx5__ops15_Iter_less_iterEEvT_S6_T0_T1_T2_(ptr noundef %0, ptr noundef %1, ptr noundef %2, i64 noundef %3) #0 {
  %5 = alloca ptr, align 8
  %6 = alloca ptr, align 8
  %7 = alloca ptr, align 8
  %8 = alloca i64, align 8
  %9 = alloca i64, align 8
  %10 = alloca ptr, align 8
  store ptr %0, ptr %5, align 8
  store ptr %1, ptr %6, align 8
  store ptr %2, ptr %7, align 8
  store i64 %3, ptr %8, align 8
  %11 = load ptr, ptr %6, align 8
  %12 = load ptr, ptr %5, align 8
  %13 = ptrtoint ptr %11 to i64
  %14 = ptrtoint ptr %12 to i64
  %15 = sub i64 %13, %14
  %16 = sdiv exact i64 %15, 16
  %17 = add nsw i64 %16, 1
  %18 = sdiv i64 %17, 2
  store i64 %18, ptr %9, align 8
  %19 = load ptr, ptr %5, align 8
  %20 = load i64, ptr %9, align 8
  %21 = getelementptr inbounds %"struct.(anonymous namespace)::SynthesizeIvarChunk", ptr %19, i64 %20
  store ptr %21, ptr %10, align 8
  %22 = load i64, ptr %9, align 8
  %23 = load i64, ptr %8, align 8
  %24 = icmp sgt i64 %22, %23
  br i1 %24, label %25, label %34

25:                                               ; preds = %4
  %26 = load ptr, ptr %5, align 8
  %27 = load ptr, ptr %10, align 8
  %28 = load ptr, ptr %7, align 8
  %29 = load i64, ptr %8, align 8
  call void @_ZSt22__stable_sort_adaptiveIPN12_GLOBAL__N_119SynthesizeIvarChunkES2_lN9__gnu_cxx5__ops15_Iter_less_iterEEvT_S6_T0_T1_T2_(ptr noundef %26, ptr noundef %27, ptr noundef %28, i64 noundef %29)
  %30 = load ptr, ptr %10, align 8
  %31 = load ptr, ptr %6, align 8
  %32 = load ptr, ptr %7, align 8
  %33 = load i64, ptr %8, align 8
  call void @_ZSt22__stable_sort_adaptiveIPN12_GLOBAL__N_119SynthesizeIvarChunkES2_lN9__gnu_cxx5__ops15_Iter_less_iterEEvT_S6_T0_T1_T2_(ptr noundef %30, ptr noundef %31, ptr noundef %32, i64 noundef %33)
  br label %41

34:                                               ; preds = %4
  %35 = load ptr, ptr %5, align 8
  %36 = load ptr, ptr %10, align 8
  %37 = load ptr, ptr %7, align 8
  call void @_ZSt24__merge_sort_with_bufferIPN12_GLOBAL__N_119SynthesizeIvarChunkES2_N9__gnu_cxx5__ops15_Iter_less_iterEEvT_S6_T0_T1_(ptr noundef %35, ptr noundef %36, ptr noundef %37)
  %38 = load ptr, ptr %10, align 8
  %39 = load ptr, ptr %6, align 8
  %40 = load ptr, ptr %7, align 8
  call void @_ZSt24__merge_sort_with_bufferIPN12_GLOBAL__N_119SynthesizeIvarChunkES2_N9__gnu_cxx5__ops15_Iter_less_iterEEvT_S6_T0_T1_(ptr noundef %38, ptr noundef %39, ptr noundef %40)
  br label %41

41:                                               ; preds = %34, %25
  %42 = load ptr, ptr %5, align 8
  %43 = load ptr, ptr %10, align 8
  %44 = load ptr, ptr %6, align 8
  %45 = load ptr, ptr %10, align 8
  %46 = load ptr, ptr %5, align 8
  %47 = ptrtoint ptr %45 to i64
  %48 = ptrtoint ptr %46 to i64
  %49 = sub i64 %47, %48
  %50 = sdiv exact i64 %49, 16
  %51 = load ptr, ptr %6, align 8
  %52 = load ptr, ptr %10, align 8
  %53 = ptrtoint ptr %51 to i64
  %54 = ptrtoint ptr %52 to i64
  %55 = sub i64 %53, %54
  %56 = sdiv exact i64 %55, 16
  %57 = load ptr, ptr %7, align 8
  %58 = load i64, ptr %8, align 8
  call void @_ZSt16__merge_adaptiveIPN12_GLOBAL__N_119SynthesizeIvarChunkElS2_N9__gnu_cxx5__ops15_Iter_less_iterEEvT_S6_S6_T0_S7_T1_S7_T2_(ptr noundef %42, ptr noundef %43, ptr noundef %44, i64 noundef %50, i64 noundef %56, ptr noundef %57, i64 noundef %58)
  ret void
}