; Function Attrs: mustprogress nofree nosync nounwind memory(readwrite, inaccessiblemem: none) uwtable
define internal fastcc void @_ZSt22__stable_sort_adaptiveIPN12_GLOBAL__N_119SynthesizeIvarChunkES2_lN9__gnu_cxx5__ops15_Iter_less_iterEEvT_S6_T0_T1_T2_(ptr noundef %0, ptr noundef %1, ptr noundef %2, i64 noundef %3) unnamed_addr #15 {
  %5 = ptrtoint ptr %1 to i64
  %6 = ptrtoint ptr %0 to i64
  %7 = sub i64 %5, %6
  %8 = ashr exact i64 %7, 4
  %9 = add nsw i64 %8, 1
  %10 = sdiv i64 %9, 2
  %11 = getelementptr inbounds %"struct.(anonymous namespace)::SynthesizeIvarChunk", ptr %0, i64 %10
  %12 = icmp sgt i64 %10, %3
  br i1 %12, label %13, label %14

13:                                               ; preds = %4
  tail call fastcc void @_ZSt22__stable_sort_adaptiveIPN12_GLOBAL__N_119SynthesizeIvarChunkES2_lN9__gnu_cxx5__ops15_Iter_less_iterEEvT_S6_T0_T1_T2_(ptr noundef %0, ptr noundef %11, ptr noundef %2, i64 noundef %3)
  tail call fastcc void @_ZSt22__stable_sort_adaptiveIPN12_GLOBAL__N_119SynthesizeIvarChunkES2_lN9__gnu_cxx5__ops15_Iter_less_iterEEvT_S6_T0_T1_T2_(ptr noundef %11, ptr noundef %1, ptr noundef %2, i64 noundef %3)
  br label %15

14:                                               ; preds = %4
  tail call fastcc void @_ZSt24__merge_sort_with_bufferIPN12_GLOBAL__N_119SynthesizeIvarChunkES2_N9__gnu_cxx5__ops15_Iter_less_iterEEvT_S6_T0_T1_(ptr noundef %0, ptr noundef %11, ptr noundef %2)
  tail call fastcc void @_ZSt24__merge_sort_with_bufferIPN12_GLOBAL__N_119SynthesizeIvarChunkES2_N9__gnu_cxx5__ops15_Iter_less_iterEEvT_S6_T0_T1_(ptr noundef %11, ptr noundef %1, ptr noundef %2)
  br label %15

15:                                               ; preds = %14, %13
  %16 = ptrtoint ptr %11 to i64
  %17 = sub i64 %5, %16
  %18 = ashr exact i64 %17, 4
  tail call fastcc void @_ZSt16__merge_adaptiveIPN12_GLOBAL__N_119SynthesizeIvarChunkElS2_N9__gnu_cxx5__ops15_Iter_less_iterEEvT_S6_S6_T0_S7_T1_S7_T2_(ptr noundef %0, ptr noundef %11, ptr noundef %1, i64 noundef %10, i64 noundef %18, ptr noundef %2, i64 noundef %3)
  ret void
}